target datalayout = "e-m:e-p270:32:32-p271:32:32-p272:64:64-i64:64-i128:128-f80:128-n8:16:32:64-S128"
target triple = "x86_64-pc-linux-gnu"

%struct.AVFilterPad = type { ptr, i32, i32, %union.anon, ptr, ptr, ptr }
%union.anon = type { ptr }
%struct.AVFilterContext = type { ptr, ptr, ptr, ptr, ptr, i32, ptr, ptr, i32, ptr, ptr, i32, i32, ptr, ptr, ptr, ptr, i32, ptr, i32, i32 }
%struct.ThresholdContext = type { ptr, i32, i32, i32, i32, [4 x i32], [4 x i32], ptr, [4 x ptr], %struct.FFFrameSync }
%struct.FFFrameSync = type { ptr, ptr, i32, %struct.AVRational, i64, ptr, ptr, i32, i32, i8, i8, ptr, i32, i32, i32, i32 }
%struct.AVRational = type { i32, i32 }
%struct.AVFilterLink = type { ptr, ptr, ptr, ptr, i32, i32, i32, i32, %struct.AVRational, i32, i32, i32, %struct.AVChannelLayout, %struct.AVRational, ptr, i32, %struct.AVFilterFormatsConfig, %struct.AVFilterFormatsConfig }
%struct.AVChannelLayout = type { i32, i32, %union.anon.1, ptr }
%union.anon.1 = type { i64 }
%struct.AVFilterFormatsConfig = type { ptr, ptr, ptr, ptr, ptr }
%struct.FilterLink = type { %struct.AVFilterLink, ptr, i64, i64, i32, i32, i64, i64, i64, i64, %struct.AVRational, ptr }
%struct.FFFrameSyncIn = type { i32, i32, %struct.AVRational, ptr, ptr, i64, i64, i8, i8, i32, i32 }

@.str.5 = private unnamed_addr constant [209 x i8] c"First input link %s parameters (size %dx%d) do not match the corresponding second input link %s parameters (%dx%d) and/or third input link %s parameters (%dx%d) and/or fourth input link %s parameters (%dx%d)\0A\00", align 1

; Function Attrs: inlinehint nounwind uwtable
define internal ptr @ff_filter_link(ptr noundef %0) #5 {
  %2 = alloca ptr, align 8
  store ptr %0, ptr %2, align 8, !tbaa !24
  %3 = load ptr, ptr %2, align 8, !tbaa !24
  ret ptr %3
}

; Function Attrs: nounwind uwtable
define internal i32 @config_output(ptr noundef %0) #2 {
  %2 = alloca i32, align 4
  %3 = alloca ptr, align 8
  %4 = alloca ptr, align 8
  %5 = alloca ptr, align 8
  %6 = alloca ptr, align 8
  %7 = alloca ptr, align 8
  %8 = alloca ptr, align 8
  %9 = alloca ptr, align 8
  %10 = alloca ptr, align 8
  %11 = alloca ptr, align 8
  %12 = alloca ptr, align 8
  %13 = alloca i32, align 4
  %14 = alloca i32, align 4
  store ptr %0, ptr %3, align 8, !tbaa !24
  call void @llvm.lifetime.start.p0(i64 8, ptr %4) #9
  %15 = load ptr, ptr %3, align 8, !tbaa !24
  %16 = getelementptr inbounds nuw %struct.AVFilterLink, ptr %15, i32 0, i32 0
  %17 = load ptr, ptr %16, align 8, !tbaa !65
  store ptr %17, ptr %4, align 8, !tbaa !4
  call void @llvm.lifetime.start.p0(i64 8, ptr %5) #9
  %18 = load ptr, ptr %4, align 8, !tbaa !4
  %19 = getelementptr inbounds nuw %struct.AVFilterContext, ptr %18, i32 0, i32 9
  %20 = load ptr, ptr %19, align 8, !tbaa !9
  store ptr %20, ptr %5, align 8, !tbaa !22
  call void @llvm.lifetime.start.p0(i64 8, ptr %6) #9
  %21 = load ptr, ptr %4, align 8, !tbaa !4
  %22 = getelementptr inbounds nuw %struct.AVFilterContext, ptr %21, i32 0, i32 4
  %23 = load ptr, ptr %22, align 8, !tbaa !66
  %24 = getelementptr inbounds ptr, ptr %23, i64 0
  %25 = load ptr, ptr %24, align 8, !tbaa !24
  store ptr %25, ptr %6, align 8, !tbaa !24
  call void @llvm.lifetime.start.p0(i64 8, ptr %7) #9
  %26 = load ptr, ptr %4, align 8, !tbaa !4
  %27 = getelementptr inbounds nuw %struct.AVFilterContext, ptr %26, i32 0, i32 4
  %28 = load ptr, ptr %27, align 8, !tbaa !66
  %29 = getelementptr inbounds ptr, ptr %28, i64 1
  %30 = load ptr, ptr %29, align 8, !tbaa !24
  store ptr %30, ptr %7, align 8, !tbaa !24
  call void @llvm.lifetime.start.p0(i64 8, ptr %8) #9
  %31 = load ptr, ptr %4, align 8, !tbaa !4
  %32 = getelementptr inbounds nuw %struct.AVFilterContext, ptr %31, i32 0, i32 4
  %33 = load ptr, ptr %32, align 8, !tbaa !66
  %34 = getelementptr inbounds ptr, ptr %33, i64 2
  %35 = load ptr, ptr %34, align 8, !tbaa !24
  store ptr %35, ptr %8, align 8, !tbaa !24
  call void @llvm.lifetime.start.p0(i64 8, ptr %9) #9
  %36 = load ptr, ptr %4, align 8, !tbaa !4
  %37 = getelementptr inbounds nuw %struct.AVFilterContext, ptr %36, i32 0, i32 4
  %38 = load ptr, ptr %37, align 8, !tbaa !66
  %39 = getelementptr inbounds ptr, ptr %38, i64 3
  %40 = load ptr, ptr %39, align 8, !tbaa !24
  store ptr %40, ptr %9, align 8, !tbaa !24
  call void @llvm.lifetime.start.p0(i64 8, ptr %10) #9
  %41 = load ptr, ptr %6, align 8, !tbaa !24
  %42 = call ptr @ff_filter_link(ptr noundef %41)
  store ptr %42, ptr %10, align 8, !tbaa !67
  call void @llvm.lifetime.start.p0(i64 8, ptr %11) #9
  %43 = load ptr, ptr %3, align 8, !tbaa !24
  %44 = call ptr @ff_filter_link(ptr noundef %43)
  store ptr %44, ptr %11, align 8, !tbaa !67
  call void @llvm.lifetime.start.p0(i64 8, ptr %12) #9
  call void @llvm.lifetime.start.p0(i64 4, ptr %13) #9
  %45 = load ptr, ptr %6, align 8, !tbaa !24
  %46 = getelementptr inbounds nuw %struct.AVFilterLink, ptr %45, i32 0, i32 6
  %47 = load i32, ptr %46, align 8, !tbaa !47
  %48 = load ptr, ptr %7, align 8, !tbaa !24
  %49 = getelementptr inbounds nuw %struct.AVFilterLink, ptr %48, i32 0, i32 6
  %50 = load i32, ptr %49, align 8, !tbaa !47
  %51 = icmp ne i32 %47, %50
  br i1 %51, label %92, label %52

52:                                               ; preds = %1
  %53 = load ptr, ptr %6, align 8, !tbaa !24
  %54 = getelementptr inbounds nuw %struct.AVFilterLink, ptr %53, i32 0, i32 7
  %55 = load i32, ptr %54, align 4, !tbaa !46
  %56 = load ptr, ptr %7, align 8, !tbaa !24
  %57 = getelementptr inbounds nuw %struct.AVFilterLink, ptr %56, i32 0, i32 7
  %58 = load i32, ptr %57, align 4, !tbaa !46
  %59 = icmp ne i32 %55, %58
  br i1 %59, label %92, label %60

60:                                               ; preds = %52
  %61 = load ptr, ptr %6, align 8, !tbaa !24
  %62 = getelementptr inbounds nuw %struct.AVFilterLink, ptr %61, i32 0, i32 6
  %63 = load i32, ptr %62, align 8, !tbaa !47
  %64 = load ptr, ptr %8, align 8, !tbaa !24
  %65 = getelementptr inbounds nuw %struct.AVFilterLink, ptr %64, i32 0, i32 6
  %66 = load i32, ptr %65, align 8, !tbaa !47
  %67 = icmp ne i32 %63, %66
  br i1 %67, label %92, label %68

68:                                               ; preds = %60
  %69 = load ptr, ptr %6, align 8, !tbaa !24
  %70 = getelementptr inbounds nuw %struct.AVFilterLink, ptr %69, i32 0, i32 7
  %71 = load i32, ptr %70, align 4, !tbaa !46
  %72 = load ptr, ptr %8, align 8, !tbaa !24
  %73 = getelementptr inbounds nuw %struct.AVFilterLink, ptr %72, i32 0, i32 7
  %74 = load i32, ptr %73, align 4, !tbaa !46
  %75 = icmp ne i32 %71, %74
  br i1 %75, label %92, label %76

76:                                               ; preds = %68
  %77 = load ptr, ptr %6, align 8, !tbaa !24
  %78 = getelementptr inbounds nuw %struct.AVFilterLink, ptr %77, i32 0, i32 6
  %79 = load i32, ptr %78, align 8, !tbaa !47
  %80 = load ptr, ptr %9, align 8, !tbaa !24
  %81 = getelementptr inbounds nuw %struct.AVFilterLink, ptr %80, i32 0, i32 6
  %82 = load i32, ptr %81, align 8, !tbaa !47
  %83 = icmp ne i32 %79, %82
  br i1 %83, label %92, label %84

84:                                               ; preds = %76
  %85 = load ptr, ptr %6, align 8, !tbaa !24
  %86 = getelementptr inbounds nuw %struct.AVFilterLink, ptr %85, i32 0, i32 7
  %87 = load i32, ptr %86, align 4, !tbaa !46
  %88 = load ptr, ptr %9, align 8, !tbaa !24
  %89 = getelementptr inbounds nuw %struct.AVFilterLink, ptr %88, i32 0, i32 7
  %90 = load i32, ptr %89, align 4, !tbaa !46
  %91 = icmp ne i32 %87, %90
  br i1 %91, label %92, label %142

92:                                               ; preds = %84, %76, %68, %60, %52, %1
  %93 = load ptr, ptr %4, align 8, !tbaa !4
  %94 = load ptr, ptr %4, align 8, !tbaa !4
  %95 = getelementptr inbounds nuw %struct.AVFilterContext, ptr %94, i32 0, i32 3
  %96 = load ptr, ptr %95, align 8, !tbaa !69
  %97 = getelementptr inbounds %struct.AVFilterPad, ptr %96, i64 0
  %98 = getelementptr inbounds nuw %struct.AVFilterPad, ptr %97, i32 0, i32 0
  %99 = load ptr, ptr %98, align 8, !tbaa !70
  %100 = load ptr, ptr %6, align 8, !tbaa !24
  %101 = getelementptr inbounds nuw %struct.AVFilterLink, ptr %100, i32 0, i32 6
  %102 = load i32, ptr %101, align 8, !tbaa !47
  %103 = load ptr, ptr %6, align 8, !tbaa !24
  %104 = getelementptr inbounds nuw %struct.AVFilterLink, ptr %103, i32 0, i32 7
  %105 = load i32, ptr %104, align 4, !tbaa !46
  %106 = load ptr, ptr %4, align 8, !tbaa !4
  %107 = getelementptr inbounds nuw %struct.AVFilterContext, ptr %106, i32 0, i32 3
  %108 = load ptr, ptr %107, align 8, !tbaa !69
  %109 = getelementptr inbounds %struct.AVFilterPad, ptr %108, i64 1
  %110 = getelementptr inbounds nuw %struct.AVFilterPad, ptr %109, i32 0, i32 0
  %111 = load ptr, ptr %110, align 8, !tbaa !70
  %112 = load ptr, ptr %7, align 8, !tbaa !24
  %113 = getelementptr inbounds nuw %struct.AVFilterLink, ptr %112, i32 0, i32 6
  %114 = load i32, ptr %113, align 8, !tbaa !47
  %115 = load ptr, ptr %7, align 8, !tbaa !24
  %116 = getelementptr inbounds nuw %struct.AVFilterLink, ptr %115, i32 0, i32 7
  %117 = load i32, ptr %116, align 4, !tbaa !46
  %118 = load ptr, ptr %4, align 8, !tbaa !4
  %119 = getelementptr inbounds nuw %struct.AVFilterContext, ptr %118, i32 0, i32 3
  %120 = load ptr, ptr %119, align 8, !tbaa !69
  %121 = getelementptr inbounds %struct.AVFilterPad, ptr %120, i64 2
  %122 = getelementptr inbounds nuw %struct.AVFilterPad, ptr %121, i32 0, i32 0
  %123 = load ptr, ptr %122, align 8, !tbaa !70
  %124 = load ptr, ptr %8, align 8, !tbaa !24
  %125 = getelementptr inbounds nuw %struct.AVFilterLink, ptr %124, i32 0, i32 6
  %126 = load i32, ptr %125, align 8, !tbaa !47
  %127 = load ptr, ptr %8, align 8, !tbaa !24
  %128 = getelementptr inbounds nuw %struct.AVFilterLink, ptr %127, i32 0, i32 7
  %129 = load i32, ptr %128, align 4, !tbaa !46
  %130 = load ptr, ptr %4, align 8, !tbaa !4
  %131 = getelementptr inbounds nuw %struct.AVFilterContext, ptr %130, i32 0, i32 3
  %132 = load ptr, ptr %131, align 8, !tbaa !69
  %133 = getelementptr inbounds %struct.AVFilterPad, ptr %132, i64 3
  %134 = getelementptr inbounds nuw %struct.AVFilterPad, ptr %133, i32 0, i32 0
  %135 = load ptr, ptr %134, align 8, !tbaa !70
  %136 = load ptr, ptr %9, align 8, !tbaa !24
  %137 = getelementptr inbounds nuw %struct.AVFilterLink, ptr %136, i32 0, i32 6
  %138 = load i32, ptr %137, align 8, !tbaa !47
  %139 = load ptr, ptr %9, align 8, !tbaa !24
  %140 = getelementptr inbounds nuw %struct.AVFilterLink, ptr %139, i32 0, i32 7
  %141 = load i32, ptr %140, align 4, !tbaa !46
  call void (ptr, i32, ptr, ...) @av_log(ptr noundef %93, i32 noundef 16, ptr noundef @.str.5, ptr noundef %99, i32 noundef %102, i32 noundef %105, ptr noundef %111, i32 noundef %114, i32 noundef %117, ptr noundef %123, i32 noundef %126, i32 noundef %129, ptr noundef %135, i32 noundef %138, i32 noundef %141)
  store i32 -22, ptr %2, align 4
  store i32 1, ptr %14, align 4
  br label %245

142:                                              ; preds = %84
  %143 = load ptr, ptr %6, align 8, !tbaa !24
  %144 = getelementptr inbounds nuw %struct.AVFilterLink, ptr %143, i32 0, i32 6
  %145 = load i32, ptr %144, align 8, !tbaa !47
  %146 = load ptr, ptr %3, align 8, !tbaa !24
  %147 = getelementptr inbounds nuw %struct.AVFilterLink, ptr %146, i32 0, i32 6
  store i32 %145, ptr %147, align 8, !tbaa !47
  %148 = load ptr, ptr %6, align 8, !tbaa !24
  %149 = getelementptr inbounds nuw %struct.AVFilterLink, ptr %148, i32 0, i32 7
  %150 = load i32, ptr %149, align 4, !tbaa !46
  %151 = load ptr, ptr %3, align 8, !tbaa !24
  %152 = getelementptr inbounds nuw %struct.AVFilterLink, ptr %151, i32 0, i32 7
  store i32 %150, ptr %152, align 4, !tbaa !46
  %153 = load ptr, ptr %3, align 8, !tbaa !24
  %154 = getelementptr inbounds nuw %struct.AVFilterLink, ptr %153, i32 0, i32 8
  %155 = load ptr, ptr %6, align 8, !tbaa !24
  %156 = getelementptr inbounds nuw %struct.AVFilterLink, ptr %155, i32 0, i32 8
  call void @llvm.memcpy.p0.p0.i64(ptr align 8 %154, ptr align 8 %156, i64 8, i1 false), !tbaa.struct !72
  %157 = load ptr, ptr %11, align 8, !tbaa !67
  %158 = getelementptr inbounds nuw %struct.FilterLink, ptr %157, i32 0, i32 10
  %159 = load ptr, ptr %10, align 8, !tbaa !67
  %160 = getelementptr inbounds nuw %struct.FilterLink, ptr %159, i32 0, i32 10
  call void @llvm.memcpy.p0.p0.i64(ptr align 8 %158, ptr align 8 %160, i64 8, i1 false), !tbaa.struct !72
  %161 = load ptr, ptr %5, align 8, !tbaa !22
  %162 = getelementptr inbounds nuw %struct.ThresholdContext, ptr %161, i32 0, i32 9
  %163 = load ptr, ptr %4, align 8, !tbaa !4
  %164 = call i32 @ff_framesync_init(ptr noundef %162, ptr noundef %163, i32 noundef 4)
  store i32 %164, ptr %13, align 4, !tbaa !44
  %165 = icmp slt i32 %164, 0
  br i1 %165, label %166, label %168

166:                                              ; preds = %142
  %167 = load i32, ptr %13, align 4, !tbaa !44
  store i32 %167, ptr %2, align 4
  store i32 1, ptr %14, align 4
  br label %245

168:                                              ; preds = %142
  %169 = load ptr, ptr %5, align 8, !tbaa !22
  %170 = getelementptr inbounds nuw %struct.ThresholdContext, ptr %169, i32 0, i32 9
  %171 = getelementptr inbounds nuw %struct.FFFrameSync, ptr %170, i32 0, i32 11
  %172 = load ptr, ptr %171, align 8, !tbaa !73
  store ptr %172, ptr %12, align 8, !tbaa !74
  %173 = load ptr, ptr %12, align 8, !tbaa !74
  %174 = getelementptr inbounds %struct.FFFrameSyncIn, ptr %173, i64 0
  %175 = getelementptr inbounds nuw %struct.FFFrameSyncIn, ptr %174, i32 0, i32 2
  %176 = load ptr, ptr %6, align 8, !tbaa !24
  %177 = getelementptr inbounds nuw %struct.AVFilterLink, ptr %176, i32 0, i32 13
  call void @llvm.memcpy.p0.p0.i64(ptr align 8 %175, ptr align 8 %177, i64 8, i1 false), !tbaa.struct !72
  %178 = load ptr, ptr %12, align 8, !tbaa !74
  %179 = getelementptr inbounds %struct.FFFrameSyncIn, ptr %178, i64 1
  %180 = getelementptr inbounds nuw %struct.FFFrameSyncIn, ptr %179, i32 0, i32 2
  %181 = load ptr, ptr %7, align 8, !tbaa !24
  %182 = getelementptr inbounds nuw %struct.AVFilterLink, ptr %181, i32 0, i32 13
  call void @llvm.memcpy.p0.p0.i64(ptr align 8 %180, ptr align 8 %182, i64 8, i1 false), !tbaa.struct !72
  %183 = load ptr, ptr %12, align 8, !tbaa !74
  %184 = getelementptr inbounds %struct.FFFrameSyncIn, ptr %183, i64 2
  %185 = getelementptr inbounds nuw %struct.FFFrameSyncIn, ptr %184, i32 0, i32 2
  %186 = load ptr, ptr %8, align 8, !tbaa !24
  %187 = getelementptr inbounds nuw %struct.AVFilterLink, ptr %186, i32 0, i32 13
  call void @llvm.memcpy.p0.p0.i64(ptr align 8 %185, ptr align 8 %187, i64 8, i1 false), !tbaa.struct !72
  %188 = load ptr, ptr %12, align 8, !tbaa !74
  %189 = getelementptr inbounds %struct.FFFrameSyncIn, ptr %188, i64 3
  %190 = getelementptr inbounds nuw %struct.FFFrameSyncIn, ptr %189, i32 0, i32 2
  %191 = load ptr, ptr %9, align 8, !tbaa !24
  %192 = getelementptr inbounds nuw %struct.AVFilterLink, ptr %191, i32 0, i32 13
  call void @llvm.memcpy.p0.p0.i64(ptr align 8 %190, ptr align 8 %192, i64 8, i1 false), !tbaa.struct !72
  %193 = load ptr, ptr %12, align 8, !tbaa !74
  %194 = getelementptr inbounds %struct.FFFrameSyncIn, ptr %193, i64 0
  %195 = getelementptr inbounds nuw %struct.FFFrameSyncIn, ptr %194, i32 0, i32 9
  store i32 1, ptr %195, align 4, !tbaa !75
  %196 = load ptr, ptr %12, align 8, !tbaa !74
  %197 = getelementptr inbounds %struct.FFFrameSyncIn, ptr %196, i64 0
  %198 = getelementptr inbounds nuw %struct.FFFrameSyncIn, ptr %197, i32 0, i32 0
  store i32 0, ptr %198, align 8, !tbaa !78
  %199 = load ptr, ptr %12, align 8, !tbaa !74
  %200 = getelementptr inbounds %struct.FFFrameSyncIn, ptr %199, i64 0
  %201 = getelementptr inbounds nuw %struct.FFFrameSyncIn, ptr %200, i32 0, i32 1
  store i32 0, ptr %201, align 4, !tbaa !79
  %202 = load ptr, ptr %12, align 8, !tbaa !74
  %203 = getelementptr inbounds %struct.FFFrameSyncIn, ptr %202, i64 1
  %204 = getelementptr inbounds nuw %struct.FFFrameSyncIn, ptr %203, i32 0, i32 9
  store i32 1, ptr %204, align 4, !tbaa !75
  %205 = load ptr, ptr %12, align 8, !tbaa !74
  %206 = getelementptr inbounds %struct.FFFrameSyncIn, ptr %205, i64 1
  %207 = getelementptr inbounds nuw %struct.FFFrameSyncIn, ptr %206, i32 0, i32 0
  store i32 0, ptr %207, align 8, !tbaa !78
  %208 = load ptr, ptr %12, align 8, !tbaa !74
  %209 = getelementptr inbounds %struct.FFFrameSyncIn, ptr %208, i64 1
  %210 = getelementptr inbounds nuw %struct.FFFrameSyncIn, ptr %209, i32 0, i32 1
  store i32 0, ptr %210, align 4, !tbaa !79
  %211 = load ptr, ptr %12, align 8, !tbaa !74
  %212 = getelementptr inbounds %struct.FFFrameSyncIn, ptr %211, i64 2
  %213 = getelementptr inbounds nuw %struct.FFFrameSyncIn, ptr %212, i32 0, i32 9
  store i32 1, ptr %213, align 4, !tbaa !75
  %214 = load ptr, ptr %12, align 8, !tbaa !74
  %215 = getelementptr inbounds %struct.FFFrameSyncIn, ptr %214, i64 2
  %216 = getelementptr inbounds nuw %struct.FFFrameSyncIn, ptr %215, i32 0, i32 0
  store i32 0, ptr %216, align 8, !tbaa !78
  %217 = load ptr, ptr %12, align 8, !tbaa !74
  %218 = getelementptr inbounds %struct.FFFrameSyncIn, ptr %217, i64 2
  %219 = getelementptr inbounds nuw %struct.FFFrameSyncIn, ptr %218, i32 0, i32 1
  store i32 0, ptr %219, align 4, !tbaa !79
  %220 = load ptr, ptr %12, align 8, !tbaa !74
  %221 = getelementptr inbounds %struct.FFFrameSyncIn, ptr %220, i64 3
  %222 = getelementptr inbounds nuw %struct.FFFrameSyncIn, ptr %221, i32 0, i32 9
  store i32 1, ptr %222, align 4, !tbaa !75
  %223 = load ptr, ptr %12, align 8, !tbaa !74
  %224 = getelementptr inbounds %struct.FFFrameSyncIn, ptr %223, i64 3
  %225 = getelementptr inbounds nuw %struct.FFFrameSyncIn, ptr %224, i32 0, i32 0
  store i32 0, ptr %225, align 8, !tbaa !78
  %226 = load ptr, ptr %12, align 8, !tbaa !74
  %227 = getelementptr inbounds %struct.FFFrameSyncIn, ptr %226, i64 3
  %228 = getelementptr inbounds nuw %struct.FFFrameSyncIn, ptr %227, i32 0, i32 1
  store i32 0, ptr %228, align 4, !tbaa !79
  %229 = load ptr, ptr %5, align 8, !tbaa !22
  %230 = load ptr, ptr %5, align 8, !tbaa !22
  %231 = getelementptr inbounds nuw %struct.ThresholdContext, ptr %230, i32 0, i32 9
  %232 = getelementptr inbounds nuw %struct.FFFrameSync, ptr %231, i32 0, i32 6
  store ptr %229, ptr %232, align 8, !tbaa !80
  %233 = load ptr, ptr %5, align 8, !tbaa !22
  %234 = getelementptr inbounds nuw %struct.ThresholdContext, ptr %233, i32 0, i32 9
  %235 = getelementptr inbounds nuw %struct.FFFrameSync, ptr %234, i32 0, i32 5
  store ptr @process_frame, ptr %235, align 8, !tbaa !81
  %236 = load ptr, ptr %5, align 8, !tbaa !22
  %237 = getelementptr inbounds nuw %struct.ThresholdContext, ptr %236, i32 0, i32 9
  %238 = call i32 @ff_framesync_configure(ptr noundef %237)
  store i32 %238, ptr %13, align 4, !tbaa !44
  %239 = load ptr, ptr %3, align 8, !tbaa !24
  %240 = getelementptr inbounds nuw %struct.AVFilterLink, ptr %239, i32 0, i32 13
  %241 = load ptr, ptr %5, align 8, !tbaa !22
  %242 = getelementptr inbounds nuw %struct.ThresholdContext, ptr %241, i32 0, i32 9
  %243 = getelementptr inbounds nuw %struct.FFFrameSync, ptr %242, i32 0, i32 3
  call void @llvm.memcpy.p0.p0.i64(ptr align 8 %240, ptr align 4 %243, i64 8, i1 false), !tbaa.struct !72
  %244 = load i32, ptr %13, align 4, !tbaa !44
  store i32 %244, ptr %2, align 4
  store i32 1, ptr %14, align 4
  br label %245

245:                                              ; preds = %168, %166, %92
  call void @llvm.lifetime.end.p0(i64 4, ptr %13) #9
  call void @llvm.lifetime.end.p0(i64 8, ptr %12) #9
  call void @llvm.lifetime.end.p0(i64 8, ptr %11) #9
  call void @llvm.lifetime.end.p0(i64 8, ptr %10) #9
  call void @llvm.lifetime.end.p0(i64 8, ptr %9) #9
  call void @llvm.lifetime.end.p0(i64 8, ptr %8) #9
  call void @llvm.lifetime.end.p0(i64 8, ptr %7) #9
  call void @llvm.lifetime.end.p0(i64 8, ptr %6) #9
  call void @llvm.lifetime.end.p0(i64 8, ptr %5) #9
  call void @llvm.lifetime.end.p0(i64 8, ptr %4) #9
  %246 = load i32, ptr %2, align 4
  ret i32 %246
}