; Function Attrs: nounwind uwtable
define internal i32 @config_output(ptr noundef captures(none) %0) #2 {
  %2 = load ptr, ptr %0, align 8, !tbaa !54
  %3 = getelementptr inbounds nuw i8, ptr %2, i64 72
  %4 = load ptr, ptr %3, align 8, !tbaa !4
  %5 = getelementptr inbounds nuw i8, ptr %2, i64 32
  %6 = load ptr, ptr %5, align 8, !tbaa !55
  %7 = load ptr, ptr %6, align 8, !tbaa !56
  %8 = getelementptr inbounds nuw i8, ptr %6, i64 8
  %9 = load ptr, ptr %8, align 8, !tbaa !56
  %10 = getelementptr inbounds nuw i8, ptr %6, i64 16
  %11 = load ptr, ptr %10, align 8, !tbaa !56
  %12 = getelementptr inbounds nuw i8, ptr %6, i64 24
  %13 = load ptr, ptr %12, align 8, !tbaa !56
  %14 = getelementptr inbounds nuw i8, ptr %7, i64 40
  %15 = load i32, ptr %14, align 8, !tbaa !40
  %16 = getelementptr inbounds nuw i8, ptr %9, i64 40
  %17 = load i32, ptr %16, align 8, !tbaa !40
  %.not = icmp eq i32 %15, %17
  %18 = getelementptr inbounds nuw i8, ptr %7, i64 44
  %19 = load i32, ptr %18, align 4, !tbaa !37
  %20 = getelementptr inbounds nuw i8, ptr %9, i64 44
  %21 = load i32, ptr %20, align 4, !tbaa !37
  %.not75 = icmp eq i32 %19, %21
  %or.cond = select i1 %.not, i1 %.not75, i1 false
  br i1 %or.cond, label %22, label %._crit_edge

22:                                               ; preds = %1
  %23 = getelementptr inbounds nuw i8, ptr %11, i64 40
  %24 = load i32, ptr %23, align 8, !tbaa !40
  %.not76 = icmp eq i32 %15, %24
  br i1 %.not76, label %25, label %._crit_edge

25:                                               ; preds = %22
  %26 = getelementptr inbounds nuw i8, ptr %11, i64 44
  %27 = load i32, ptr %26, align 4, !tbaa !37
  %.not77 = icmp eq i32 %19, %27
  br i1 %.not77, label %28, label %._crit_edge

28:                                               ; preds = %25
  %29 = getelementptr inbounds nuw i8, ptr %13, i64 40
  %30 = load i32, ptr %29, align 8, !tbaa !40
  %.not78 = icmp eq i32 %15, %30
  br i1 %.not78, label %31, label %._crit_edge

31:                                               ; preds = %28
  %32 = getelementptr inbounds nuw i8, ptr %13, i64 44
  %33 = load i32, ptr %32, align 4, !tbaa !37
  %.not79 = icmp eq i32 %19, %33
  br i1 %.not79, label %52, label %._crit_edge

._crit_edge:                                      ; preds = %1, %31, %28, %25, %22
  %34 = phi i32 [ %19, %31 ], [ %19, %28 ], [ %19, %25 ], [ %19, %22 ], [ %21, %1 ]
  %35 = getelementptr inbounds nuw i8, ptr %2, i64 24
  %36 = load ptr, ptr %35, align 8, !tbaa !58
  %37 = load ptr, ptr %36, align 8, !tbaa !59
  %38 = getelementptr inbounds nuw i8, ptr %36, i64 48
  %39 = load ptr, ptr %38, align 8, !tbaa !59
  %40 = getelementptr inbounds nuw i8, ptr %36, i64 96
  %41 = load ptr, ptr %40, align 8, !tbaa !59
  %42 = getelementptr inbounds nuw i8, ptr %11, i64 40
  %43 = load i32, ptr %42, align 8, !tbaa !40
  %44 = getelementptr inbounds nuw i8, ptr %11, i64 44
  %45 = load i32, ptr %44, align 4, !tbaa !37
  %46 = getelementptr inbounds nuw i8, ptr %36, i64 144
  %47 = load ptr, ptr %46, align 8, !tbaa !59
  %48 = getelementptr inbounds nuw i8, ptr %13, i64 40
  %49 = load i32, ptr %48, align 8, !tbaa !40
  %50 = getelementptr inbounds nuw i8, ptr %13, i64 44
  %51 = load i32, ptr %50, align 4, !tbaa !37
  tail call void (ptr, i32, ptr, ...) @av_log(ptr noundef nonnull %2, i32 noundef 16, ptr noundef nonnull @.str.5, ptr noundef %37, i32 noundef %15, i32 noundef %19, ptr noundef %39, i32 noundef %17, i32 noundef %34, ptr noundef %41, i32 noundef %43, i32 noundef %45, ptr noundef %47, i32 noundef %49, i32 noundef %51) #8
  br label %96

52:                                               ; preds = %31
  %53 = getelementptr inbounds nuw i8, ptr %0, i64 40
  store i32 %15, ptr %53, align 8, !tbaa !40
  %54 = getelementptr inbounds nuw i8, ptr %0, i64 44
  store i32 %19, ptr %54, align 4, !tbaa !37
  %55 = getelementptr inbounds nuw i8, ptr %0, i64 48
  %56 = getelementptr inbounds nuw i8, ptr %7, i64 48
  %57 = load i64, ptr %56, align 8
  store i64 %57, ptr %55, align 8
  %58 = getelementptr inbounds nuw i8, ptr %0, i64 264
  %59 = getelementptr inbounds nuw i8, ptr %7, i64 264
  %60 = load i64, ptr %59, align 8
  store i64 %60, ptr %58, align 8
  %61 = getelementptr inbounds nuw i8, ptr %4, i64 96
  %62 = tail call i32 @ff_framesync_init(ptr noundef nonnull %61, ptr noundef nonnull %2, i32 noundef 4) #8
  %63 = icmp slt i32 %62, 0
  br i1 %63, label %96, label %64

64:                                               ; preds = %52
  %65 = getelementptr inbounds nuw i8, ptr %4, i64 168
  %66 = load ptr, ptr %65, align 8, !tbaa !61
  %67 = getelementptr inbounds nuw i8, ptr %66, i64 8
  %68 = getelementptr inbounds nuw i8, ptr %7, i64 96
  %69 = load i64, ptr %68, align 8
  store i64 %69, ptr %67, align 8
  %70 = getelementptr inbounds nuw i8, ptr %66, i64 64
  %71 = getelementptr inbounds nuw i8, ptr %66, i64 72
  %72 = getelementptr inbounds nuw i8, ptr %9, i64 96
  %73 = load i64, ptr %72, align 8
  store i64 %73, ptr %71, align 8
  %74 = getelementptr inbounds nuw i8, ptr %66, i64 128
  %75 = getelementptr inbounds nuw i8, ptr %66, i64 136
  %76 = getelementptr inbounds nuw i8, ptr %11, i64 96
  %77 = load i64, ptr %76, align 8
  store i64 %77, ptr %75, align 8
  %78 = getelementptr inbounds nuw i8, ptr %66, i64 192
  %79 = getelementptr inbounds nuw i8, ptr %66, i64 200
  %80 = getelementptr inbounds nuw i8, ptr %13, i64 96
  %81 = load i64, ptr %80, align 8
  store i64 %81, ptr %79, align 8
  %82 = getelementptr inbounds nuw i8, ptr %66, i64 52
  store i32 1, ptr %82, align 4, !tbaa !62
  store i32 0, ptr %66, align 8, !tbaa !65
  %83 = getelementptr inbounds nuw i8, ptr %66, i64 4
  store i32 0, ptr %83, align 4, !tbaa !66
  %84 = getelementptr inbounds nuw i8, ptr %66, i64 116
  store i32 1, ptr %84, align 4, !tbaa !62
  store i32 0, ptr %70, align 8, !tbaa !65
  %85 = getelementptr inbounds nuw i8, ptr %66, i64 68
  store i32 0, ptr %85, align 4, !tbaa !66
  %86 = getelementptr inbounds nuw i8, ptr %66, i64 180
  store i32 1, ptr %86, align 4, !tbaa !62
  store i32 0, ptr %74, align 8, !tbaa !65
  %87 = getelementptr inbounds nuw i8, ptr %66, i64 132
  store i32 0, ptr %87, align 4, !tbaa !66
  %88 = getelementptr inbounds nuw i8, ptr %66, i64 244
  store i32 1, ptr %88, align 4, !tbaa !62
  store i32 0, ptr %78, align 8, !tbaa !65
  %89 = getelementptr inbounds nuw i8, ptr %66, i64 196
  store i32 0, ptr %89, align 4, !tbaa !66
  %90 = getelementptr inbounds nuw i8, ptr %4, i64 144
  store ptr %4, ptr %90, align 8, !tbaa !67
  %91 = getelementptr inbounds nuw i8, ptr %4, i64 136
  store ptr @process_frame, ptr %91, align 8, !tbaa !68
  %92 = tail call i32 @ff_framesync_configure(ptr noundef nonnull %61) #8
  %93 = getelementptr inbounds nuw i8, ptr %0, i64 96
  %94 = getelementptr inbounds nuw i8, ptr %4, i64 116
  %95 = load i64, ptr %94, align 4
  store i64 %95, ptr %93, align 8
  br label %96

96:                                               ; preds = %52, %64, %._crit_edge
  %.0 = phi i32 [ -22, %._crit_edge ], [ %92, %64 ], [ %62, %52 ]
  ret i32 %.0
}